; Function Attrs: nounwind uwtable
define ptr @l_Array_foldlMUnsafe_fold___at_Lean_Elab_InfoTree_smallestInfo_x3f___spec__10(ptr noundef readonly captures(none) %0, i64 noundef %1, i64 noundef %2, ptr noundef %3) local_unnamed_addr #0 {
  %.not61 = icmp eq i64 %1, %2
  br i1 %.not61, label %._crit_edge, label %.lr.ph

.lr.ph:                                           ; preds = %4
  %5 = getelementptr inbounds nuw i8, ptr %0, i64 24
  br label %6

6:                                                ; preds = %.lr.ph, %lean_dec.exit30
  %.02565 = phi i64 [ %1, %.lr.ph ], [ %63, %lean_dec.exit30 ]
  %.02762 = phi ptr [ %3, %.lr.ph ], [ %.229, %lean_dec.exit30 ]
  %7 = getelementptr inbounds nuw [0 x ptr], ptr %5, i64 0, i64 %.02565
  %8 = load ptr, ptr %7, align 8, !tbaa !9
  %9 = ptrtoint ptr %8 to i64
  %10 = and i64 %9, 1
  %.not.i40 = icmp eq i64 %10, 0
  br i1 %.not.i40, label %11, label %lean_array_uget.exit

11:                                               ; preds = %6
  %.val.i.i = load i32, ptr %8, align 4, !tbaa !4
  %12 = icmp sgt i32 %.val.i.i, 0
  br i1 %12, label %13, label %15, !prof !15

13:                                               ; preds = %11
  %14 = add nuw i32 %.val.i.i, 1
  store i32 %14, ptr %8, align 4, !tbaa !4
  br label %lean_array_uget.exit

15:                                               ; preds = %11
  %.not.i.i = icmp eq i32 %.val.i.i, 0
  br i1 %.not.i.i, label %lean_array_uget.exit, label %16

16:                                               ; preds = %15
  tail call void @lean_inc_ref_cold(ptr noundef nonnull %8) #7
  br label %lean_array_uget.exit

lean_array_uget.exit:                             ; preds = %6, %13, %15, %16
  %17 = getelementptr inbounds nuw i8, ptr %8, i64 8
  %18 = load ptr, ptr %17, align 8, !tbaa !9
  %19 = ptrtoint ptr %18 to i64
  %20 = and i64 %19, 1
  %.not56 = icmp eq i64 %20, 0
  br i1 %.not56, label %21, label %lean_inc.exit33.thread

21:                                               ; preds = %lean_array_uget.exit
  %.val.i = load i32, ptr %18, align 4, !tbaa !4
  %22 = icmp sgt i32 %.val.i, 0
  br i1 %22, label %23, label %25, !prof !15

23:                                               ; preds = %21
  %24 = add nuw i32 %.val.i, 1
  store i32 %24, ptr %18, align 4, !tbaa !4
  br label %lean_inc.exit33

25:                                               ; preds = %21
  %.not.i41 = icmp eq i32 %.val.i, 0
  br i1 %.not.i41, label %lean_inc.exit33, label %26

26:                                               ; preds = %25
  tail call void @lean_inc_ref_cold(ptr noundef nonnull %18) #7
  br label %lean_inc.exit33

lean_inc.exit33:                                  ; preds = %26, %25, %23
  %27 = getelementptr inbounds nuw i8, ptr %.02762, i64 8
  %28 = load ptr, ptr %27, align 8, !tbaa !9
  %29 = ptrtoint ptr %28 to i64
  %30 = and i64 %29, 1
  %.not57 = icmp eq i64 %30, 0
  br i1 %.not57, label %35, label %lean_dec.exit32.thread

lean_inc.exit33.thread:                           ; preds = %lean_array_uget.exit
  %31 = getelementptr inbounds nuw i8, ptr %.02762, i64 8
  %32 = load ptr, ptr %31, align 8, !tbaa !9
  %33 = ptrtoint ptr %32 to i64
  %34 = and i64 %33, 1
  %.not58 = icmp eq i64 %34, 0
  br i1 %.not58, label %35, label %lean_dec.exit32.thread48

35:                                               ; preds = %lean_inc.exit33.thread, %lean_inc.exit33
  %36 = phi ptr [ %32, %lean_inc.exit33.thread ], [ %28, %lean_inc.exit33 ]
  %.val.i42 = load i32, ptr %36, align 4, !tbaa !4
  %37 = icmp sgt i32 %.val.i42, 0
  br i1 %37, label %38, label %40, !prof !15

38:                                               ; preds = %35
  %39 = add nuw i32 %.val.i42, 1
  store i32 %39, ptr %36, align 4, !tbaa !4
  br label %lean_inc.exit

40:                                               ; preds = %35
  %.not.i43 = icmp eq i32 %.val.i42, 0
  br i1 %.not.i43, label %lean_inc.exit, label %41

41:                                               ; preds = %40
  tail call void @lean_inc_ref_cold(ptr noundef nonnull %36) #7
  br label %lean_inc.exit

lean_inc.exit:                                    ; preds = %41, %40, %38
  %42 = tail call zeroext i1 @lean_nat_big_lt(ptr noundef %18, ptr noundef nonnull %36) #7
  %43 = zext i1 %42 to i8
  %44 = load i32, ptr %36, align 4, !tbaa !4
  %45 = icmp sgt i32 %44, 1
  br i1 %45, label %48, label %50, !prof !15

lean_dec.exit32.thread48:                         ; preds = %lean_inc.exit33.thread
  %46 = icmp ult ptr %18, %32
  %47 = zext i1 %46 to i8
  br label %lean_dec.exit31

48:                                               ; preds = %lean_inc.exit
  %49 = add nsw i32 %44, -1
  store i32 %49, ptr %36, align 4, !tbaa !4
  br label %lean_dec.exit32

50:                                               ; preds = %lean_inc.exit
  %.not.i = icmp eq i32 %44, 0
  br i1 %.not.i, label %lean_dec.exit32, label %51

51:                                               ; preds = %50
  tail call void @lean_dec_ref_cold(ptr noundef nonnull %36) #7
  br label %lean_dec.exit32

lean_dec.exit32.thread:                           ; preds = %lean_inc.exit33
  %52 = tail call zeroext i1 @lean_nat_big_lt(ptr noundef nonnull %18, ptr noundef %28) #7
  %53 = zext i1 %52 to i8
  br label %54

lean_dec.exit32:                                  ; preds = %51, %50, %48
  br i1 %.not56, label %54, label %lean_dec.exit31

54:                                               ; preds = %lean_dec.exit32.thread, %lean_dec.exit32
  %55 = phi i8 [ %53, %lean_dec.exit32.thread ], [ %43, %lean_dec.exit32 ]
  %56 = load i32, ptr %18, align 4, !tbaa !4
  %57 = icmp sgt i32 %56, 1
  br i1 %57, label %58, label %60, !prof !15

58:                                               ; preds = %54
  %59 = add nsw i32 %56, -1
  store i32 %59, ptr %18, align 4, !tbaa !4
  br label %lean_dec.exit31

60:                                               ; preds = %54
  %.not.i34 = icmp eq i32 %56, 0
  br i1 %.not.i34, label %lean_dec.exit31, label %61

61:                                               ; preds = %60
  tail call void @lean_dec_ref_cold(ptr noundef nonnull %18) #7
  br label %lean_dec.exit31

lean_dec.exit31:                                  ; preds = %61, %60, %58, %lean_dec.exit32.thread48, %lean_dec.exit32
  %62 = phi i8 [ %43, %lean_dec.exit32 ], [ %47, %lean_dec.exit32.thread48 ], [ %55, %58 ], [ %55, %60 ], [ %55, %61 ]
  %63 = add i64 %.02565, 1
  %64 = icmp eq i8 %62, 0
  br i1 %64, label %65, label %73

65:                                               ; preds = %lean_dec.exit31
  br i1 %.not.i40, label %66, label %lean_dec.exit30

66:                                               ; preds = %65
  %67 = load i32, ptr %8, align 4, !tbaa !4
  %68 = icmp sgt i32 %67, 1
  br i1 %68, label %69, label %71, !prof !15

69:                                               ; preds = %66
  %70 = add nsw i32 %67, -1
  store i32 %70, ptr %8, align 4, !tbaa !4
  br label %lean_dec.exit30

71:                                               ; preds = %66
  %.not.i36 = icmp eq i32 %67, 0
  br i1 %.not.i36, label %lean_dec.exit30, label %72

72:                                               ; preds = %71
  tail call void @lean_dec_ref_cold(ptr noundef nonnull %8) #7
  br label %lean_dec.exit30

73:                                               ; preds = %lean_dec.exit31
  %74 = ptrtoint ptr %.02762 to i64
  %75 = and i64 %74, 1
  %.not59 = icmp eq i64 %75, 0
  br i1 %.not59, label %76, label %lean_dec.exit30

76:                                               ; preds = %73
  %77 = load i32, ptr %.02762, align 4, !tbaa !4
  %78 = icmp sgt i32 %77, 1
  br i1 %78, label %79, label %81, !prof !15

79:                                               ; preds = %76
  %80 = add nsw i32 %77, -1
  store i32 %80, ptr %.02762, align 4, !tbaa !4
  br label %lean_dec.exit30

81:                                               ; preds = %76
  %.not.i38 = icmp eq i32 %77, 0
  br i1 %.not.i38, label %lean_dec.exit30, label %82

82:                                               ; preds = %81
  tail call void @lean_dec_ref_cold(ptr noundef nonnull %.02762) #7
  br label %lean_dec.exit30

lean_dec.exit30:                                  ; preds = %73, %79, %81, %82, %65, %69, %71, %72
  %.229 = phi ptr [ %.02762, %72 ], [ %.02762, %71 ], [ %.02762, %69 ], [ %.02762, %65 ], [ %8, %82 ], [ %8, %81 ], [ %8, %79 ], [ %8, %73 ]
  %.not = icmp eq i64 %63, %2
  br i1 %.not, label %._crit_edge, label %6

._crit_edge:                                      ; preds = %lean_dec.exit30, %4
  %.027.lcssa = phi ptr [ %3, %4 ], [ %.229, %lean_dec.exit30 ]
  ret ptr %.027.lcssa
}